target datalayout = "e-m:e-p270:32:32-p271:32:32-p272:64:64-i64:64-i128:128-f80:128-n8:16:32:64-S128"
target triple = "x86_64-unknown-linux-gnu"

%struct.grpc_resolved_address = type { [128 x i8], i32 }

; Function Attrs: mustprogress uwtable
define noundef zeroext i1 @_Z23set_matching_sd_inet_fdP15grpc_tcp_serverPK21grpc_resolved_addressiiii(ptr noundef %s, ptr noundef %addr, i32 noundef %family, i32 noundef %port, i32 noundef %fd_start, i32 noundef %n) #4 {
entry:
  %retval = alloca i1, align 1
  %s.addr = alloca ptr, align 8
  %addr.addr = alloca ptr, align 8
  %family.addr = alloca i32, align 4
  %port.addr = alloca i32, align 4
  %fd_start.addr = alloca i32, align 4
  %n.addr = alloca i32, align 4
  %i = alloca i32, align 4
  %r_inet = alloca i32, align 4
  %r_addr = alloca i32, align 4
  store ptr %s, ptr %s.addr, align 8
  store ptr %addr, ptr %addr.addr, align 8
  store i32 %family, ptr %family.addr, align 4
  store i32 %port, ptr %port.addr, align 4
  store i32 %fd_start, ptr %fd_start.addr, align 4
  store i32 %n, ptr %n.addr, align 4
  %0 = load i32, ptr %fd_start.addr, align 4
  store i32 %0, ptr %i, align 4
  br label %for.cond

for.cond:                                         ; preds = %for.inc, %entry
  %1 = load i32, ptr %i, align 4
  %2 = load i32, ptr %fd_start.addr, align 4
  %3 = load i32, ptr %n.addr, align 4
  %add = add nsw i32 %2, %3
  %cmp = icmp slt i32 %1, %add
  br i1 %cmp, label %for.body, label %for.end

for.body:                                         ; preds = %for.cond
  %4 = load i32, ptr %i, align 4
  %5 = load i32, ptr %family.addr, align 4
  %6 = load i32, ptr %port.addr, align 4
  %conv = trunc i32 %6 to i16
  %call = call i32 @sd_is_socket_inet(i32 noundef %4, i32 noundef %5, i32 noundef 1, i32 noundef 1, i16 noundef zeroext %conv)
  store i32 %call, ptr %r_inet, align 4
  %7 = load i32, ptr %i, align 4
  %8 = load ptr, ptr %addr.addr, align 8
  %addr1 = getelementptr inbounds %struct.grpc_resolved_address, ptr %8, i32 0, i32 0
  %arraydecay = getelementptr inbounds [128 x i8], ptr %addr1, i64 0, i64 0
  %9 = load ptr, ptr %addr.addr, align 8
  %len = getelementptr inbounds %struct.grpc_resolved_address, ptr %9, i32 0, i32 1
  %10 = load i32, ptr %len, align 4
  %call2 = call i32 @sd_is_socket_sockaddr(i32 noundef %7, i32 noundef 1, ptr noundef %arraydecay, i32 noundef %10, i32 noundef 1)
  store i32 %call2, ptr %r_addr, align 4
  %11 = load i32, ptr %r_inet, align 4
  %cmp3 = icmp sgt i32 %11, 0
  br i1 %cmp3, label %land.lhs.true, label %if.end

land.lhs.true:                                    ; preds = %for.body
  %12 = load i32, ptr %r_addr, align 4
  %cmp4 = icmp sgt i32 %12, 0
  br i1 %cmp4, label %if.then, label %if.end

if.then:                                          ; preds = %land.lhs.true
  %13 = load ptr, ptr %s.addr, align 8
  %14 = load i32, ptr %i, align 4
  call void @_Z36grpc_tcp_server_set_pre_allocated_fdP15grpc_tcp_serveri(ptr noundef %13, i32 noundef %14)
  store i1 true, ptr %retval, align 1
  br label %return

if.end:                                           ; preds = %land.lhs.true, %for.body
  br label %for.inc

for.inc:                                          ; preds = %if.end
  %15 = load i32, ptr %i, align 4
  %inc = add nsw i32 %15, 1
  store i32 %inc, ptr %i, align 4
  br label %for.cond, !llvm.loop !6

for.end:                                          ; preds = %for.cond
  store i1 false, ptr %retval, align 1
  br label %return

return:                                           ; preds = %for.end, %if.then
  %16 = load i1, ptr %retval, align 1
  ret i1 %16
}