; Function Attrs: mustprogress uwtable
define noundef zeroext i1 @_Z23set_matching_sd_inet_fdP15grpc_tcp_serverPK21grpc_resolved_addressiiii(ptr noundef %s, ptr noundef %addr, i32 noundef %family, i32 noundef %port, i32 noundef %fd_start, i32 noundef %n) local_unnamed_addr #3 {
entry:
  %add = add nsw i32 %n, %fd_start
  %cmp10 = icmp sgt i32 %n, 0
  br i1 %cmp10, label %for.body.lr.ph, label %return

for.body.lr.ph:                                   ; preds = %entry
  %conv = trunc i32 %port to i16
  %len = getelementptr inbounds i8, ptr %addr, i64 128
  br label %for.body

for.body:                                         ; preds = %for.body.lr.ph, %for.inc
  %i.011 = phi i32 [ %fd_start, %for.body.lr.ph ], [ %inc, %for.inc ]
  %call = tail call i32 @sd_is_socket_inet(i32 noundef %i.011, i32 noundef %family, i32 noundef 1, i32 noundef 1, i16 noundef zeroext %conv)
  %0 = load i32, ptr %len, align 4
  %call2 = tail call i32 @sd_is_socket_sockaddr(i32 noundef %i.011, i32 noundef 1, ptr noundef %addr, i32 noundef %0, i32 noundef 1)
  %cmp3 = icmp sgt i32 %call, 0
  %cmp4 = icmp sgt i32 %call2, 0
  %or.cond = select i1 %cmp3, i1 %cmp4, i1 false
  br i1 %or.cond, label %if.then, label %for.inc

if.then:                                          ; preds = %for.body
  tail call void @_Z36grpc_tcp_server_set_pre_allocated_fdP15grpc_tcp_serveri(ptr noundef %s, i32 noundef %i.011)
  br label %return

for.inc:                                          ; preds = %for.body
  %inc = add nsw i32 %i.011, 1
  %cmp = icmp slt i32 %inc, %add
  br i1 %cmp, label %for.body, label %return, !llvm.loop !6

return:                                           ; preds = %for.inc, %entry, %if.then
  %cmp8 = phi i1 [ true, %if.then ], [ false, %entry ], [ false, %for.inc ]
  ret i1 %cmp8
}